; Function Attrs: mustprogress nounwind uwtable
define internal void @_ZN12_GLOBAL__N_122StackAddrEscapeCheckerD0Ev(ptr noundef nonnull align 8 dereferenceable(112) %0) unnamed_addr #0 align 2 {
  store ptr getelementptr inbounds inrange(-16, 32) (i8, ptr @_ZTVN12_GLOBAL__N_122StackAddrEscapeCheckerE, i64 16), ptr %0, align 8
  %2 = getelementptr inbounds nuw i8, ptr %0, i64 64
  %3 = load ptr, ptr %2, align 8
  %.not.i.i = icmp eq ptr %3, null
  br i1 %.not.i.i, label %_ZNSt10unique_ptrIN5clang4ento7BugTypeESt14default_deleteIS2_EED2Ev.exit.i, label %_ZNKSt14default_deleteIN5clang4ento7BugTypeEEclEPS2_.exit.i.i

_ZNKSt14default_deleteIN5clang4ento7BugTypeEEclEPS2_.exit.i.i: ; preds = %1
  %4 = load ptr, ptr %3, align 8
  %5 = getelementptr inbounds i8, ptr %4, i64 16
  %6 = load ptr, ptr %5, align 8
  tail call void %6(ptr noundef nonnull align 8 dereferenceable(97) %3) #17
  br label %_ZNSt10unique_ptrIN5clang4ento7BugTypeESt14default_deleteIS2_EED2Ev.exit.i

_ZNSt10unique_ptrIN5clang4ento7BugTypeESt14default_deleteIS2_EED2Ev.exit.i: ; preds = %_ZNKSt14default_deleteIN5clang4ento7BugTypeEEclEPS2_.exit.i.i, %1
  store ptr null, ptr %2, align 8
  %7 = getelementptr inbounds nuw i8, ptr %0, i64 56
  %8 = load ptr, ptr %7, align 8
  %.not.i1.i = icmp eq ptr %8, null
  br i1 %.not.i1.i, label %_ZNSt10unique_ptrIN5clang4ento7BugTypeESt14default_deleteIS2_EED2Ev.exit3.i, label %_ZNKSt14default_deleteIN5clang4ento7BugTypeEEclEPS2_.exit.i2.i

_ZNKSt14default_deleteIN5clang4ento7BugTypeEEclEPS2_.exit.i2.i: ; preds = %_ZNSt10unique_ptrIN5clang4ento7BugTypeESt14default_deleteIS2_EED2Ev.exit.i
  %9 = load ptr, ptr %8, align 8
  %10 = getelementptr inbounds i8, ptr %9, i64 16
  %11 = load ptr, ptr %10, align 8
  tail call void %11(ptr noundef nonnull align 8 dereferenceable(97) %8) #17
  br label %_ZNSt10unique_ptrIN5clang4ento7BugTypeESt14default_deleteIS2_EED2Ev.exit3.i

_ZNSt10unique_ptrIN5clang4ento7BugTypeESt14default_deleteIS2_EED2Ev.exit3.i: ; preds = %_ZNKSt14default_deleteIN5clang4ento7BugTypeEEclEPS2_.exit.i2.i, %_ZNSt10unique_ptrIN5clang4ento7BugTypeESt14default_deleteIS2_EED2Ev.exit.i
  store ptr null, ptr %7, align 8
  %12 = getelementptr inbounds nuw i8, ptr %0, i64 48
  %13 = load ptr, ptr %12, align 8
  %.not.i4.i = icmp eq ptr %13, null
  br i1 %.not.i4.i, label %_ZNSt10unique_ptrIN5clang4ento7BugTypeESt14default_deleteIS2_EED2Ev.exit6.i, label %_ZNKSt14default_deleteIN5clang4ento7BugTypeEEclEPS2_.exit.i5.i

_ZNKSt14default_deleteIN5clang4ento7BugTypeEEclEPS2_.exit.i5.i: ; preds = %_ZNSt10unique_ptrIN5clang4ento7BugTypeESt14default_deleteIS2_EED2Ev.exit3.i
  %14 = load ptr, ptr %13, align 8
  %15 = getelementptr inbounds i8, ptr %14, i64 16
  %16 = load ptr, ptr %15, align 8
  tail call void %16(ptr noundef nonnull align 8 dereferenceable(97) %13) #17
  br label %_ZNSt10unique_ptrIN5clang4ento7BugTypeESt14default_deleteIS2_EED2Ev.exit6.i

_ZNSt10unique_ptrIN5clang4ento7BugTypeESt14default_deleteIS2_EED2Ev.exit6.i: ; preds = %_ZNKSt14default_deleteIN5clang4ento7BugTypeEEclEPS2_.exit.i5.i, %_ZNSt10unique_ptrIN5clang4ento7BugTypeESt14default_deleteIS2_EED2Ev.exit3.i
  store ptr null, ptr %12, align 8
  %17 = getelementptr inbounds nuw i8, ptr %0, i64 40
  %18 = load ptr, ptr %17, align 8
  %.not.i7.i = icmp eq ptr %18, null
  br i1 %.not.i7.i, label %_ZN12_GLOBAL__N_122StackAddrEscapeCheckerD2Ev.exit, label %_ZNKSt14default_deleteIN5clang4ento7BugTypeEEclEPS2_.exit.i8.i

_ZNKSt14default_deleteIN5clang4ento7BugTypeEEclEPS2_.exit.i8.i: ; preds = %_ZNSt10unique_ptrIN5clang4ento7BugTypeESt14default_deleteIS2_EED2Ev.exit6.i
  %19 = load ptr, ptr %18, align 8
  %20 = getelementptr inbounds i8, ptr %19, i64 16
  %21 = load ptr, ptr %20, align 8
  tail call void %21(ptr noundef nonnull align 8 dereferenceable(97) %18) #17
  br label %_ZN12_GLOBAL__N_122StackAddrEscapeCheckerD2Ev.exit

_ZN12_GLOBAL__N_122StackAddrEscapeCheckerD2Ev.exit: ; preds = %_ZNSt10unique_ptrIN5clang4ento7BugTypeESt14default_deleteIS2_EED2Ev.exit6.i, %_ZNKSt14default_deleteIN5clang4ento7BugTypeEEclEPS2_.exit.i8.i
  store ptr null, ptr %17, align 8
  tail call void @_ZN5clang15ProgramPointTagD2Ev(ptr noundef nonnull align 8 dereferenceable(16) %0) #17
  tail call void @_ZdlPvm(ptr noundef nonnull %0, i64 noundef 112) #20
  ret void
}